target datalayout = "e-m:e-p270:32:32-p271:32:32-p272:64:64-i64:64-i128:128-f80:128-n8:16:32:64-S128"
target triple = "x86_64-pc-linux-gnu"

@.str.126 = private unnamed_addr constant [47 x i8] c"There is a problem with option %s with quotes.\00", align 1

; Function Attrs: nounwind uwtable
define internal ptr @_parse_option(ptr noundef %0, i1 noundef zeroext %1, ptr noundef %2, ptr noundef %3, ptr noundef %4, ptr noundef %5, ptr noundef %6) #0 {
  %8 = alloca ptr, align 8
  %9 = alloca ptr, align 8
  %10 = alloca i8, align 1
  %11 = alloca ptr, align 8
  %12 = alloca ptr, align 8
  %13 = alloca ptr, align 8
  %14 = alloca ptr, align 8
  %15 = alloca ptr, align 8
  %16 = alloca i8, align 1
  %17 = alloca i32, align 4
  %18 = alloca i32, align 4
  %19 = alloca i32, align 4
  store ptr %0, ptr %9, align 8
  %20 = zext i1 %1 to i8
  store i8 %20, ptr %10, align 1
  store ptr %2, ptr %11, align 8
  store ptr %3, ptr %12, align 8
  store ptr %4, ptr %13, align 8
  store ptr %5, ptr %14, align 8
  store ptr %6, ptr %15, align 8
  call void @llvm.lifetime.start.p0(i64 1, ptr %16) #9
  store i8 0, ptr %16, align 1
  call void @llvm.lifetime.start.p0(i64 4, ptr %17) #9
  store i32 0, ptr %17, align 4
  call void @llvm.lifetime.start.p0(i64 4, ptr %18) #9
  %21 = load ptr, ptr %14, align 8
  %22 = load i32, ptr %21, align 4
  store i32 %22, ptr %18, align 4
  br label %23

23:                                               ; preds = %94, %7
  %24 = load ptr, ptr %9, align 8
  %25 = load ptr, ptr %14, align 8
  %26 = load i32, ptr %25, align 4
  %27 = sext i32 %26 to i64
  %28 = getelementptr inbounds i8, ptr %24, i64 %27
  %29 = load i8, ptr %28, align 1
  %30 = sext i8 %29 to i32
  %31 = icmp ne i32 %30, 0
  br i1 %31, label %32, label %50

32:                                               ; preds = %23
  %33 = load ptr, ptr %9, align 8
  %34 = load ptr, ptr %14, align 8
  %35 = load i32, ptr %34, align 4
  %36 = sext i32 %35 to i64
  %37 = getelementptr inbounds i8, ptr %33, i64 %36
  %38 = load i8, ptr %37, align 1
  %39 = sext i8 %38 to i32
  %40 = icmp ne i32 %39, 58
  br i1 %40, label %41, label %50

41:                                               ; preds = %32
  %42 = load ptr, ptr %9, align 8
  %43 = load ptr, ptr %14, align 8
  %44 = load i32, ptr %43, align 4
  %45 = sext i32 %44 to i64
  %46 = getelementptr inbounds i8, ptr %42, i64 %45
  %47 = load i8, ptr %46, align 1
  %48 = sext i8 %47 to i32
  %49 = icmp ne i32 %48, 10
  br label %50

50:                                               ; preds = %41, %32, %23
  %51 = phi i1 [ false, %32 ], [ false, %23 ], [ %49, %41 ]
  br i1 %51, label %52, label %98

52:                                               ; preds = %50
  %53 = load ptr, ptr %9, align 8
  %54 = load ptr, ptr %14, align 8
  %55 = load i32, ptr %54, align 4
  %56 = sext i32 %55 to i64
  %57 = getelementptr inbounds i8, ptr %53, i64 %56
  %58 = load i8, ptr %57, align 1
  %59 = sext i8 %58 to i32
  %60 = icmp eq i32 %59, 34
  br i1 %60, label %70, label %61

61:                                               ; preds = %52
  %62 = load ptr, ptr %9, align 8
  %63 = load ptr, ptr %14, align 8
  %64 = load i32, ptr %63, align 4
  %65 = sext i32 %64 to i64
  %66 = getelementptr inbounds i8, ptr %62, i64 %65
  %67 = load i8, ptr %66, align 1
  %68 = sext i8 %67 to i32
  %69 = icmp eq i32 %68, 39
  br i1 %69, label %70, label %94

70:                                               ; preds = %61, %52
  %71 = load i32, ptr %17, align 4
  %72 = icmp ne i32 %71, 0
  br i1 %72, label %73, label %86

73:                                               ; preds = %70
  %74 = load ptr, ptr %9, align 8
  %75 = load ptr, ptr %14, align 8
  %76 = load i32, ptr %75, align 4
  %77 = sext i32 %76 to i64
  %78 = getelementptr inbounds i8, ptr %74, i64 %77
  %79 = load i8, ptr %78, align 1
  %80 = sext i8 %79 to i32
  %81 = load i8, ptr %16, align 1
  %82 = sext i8 %81 to i32
  %83 = icmp eq i32 %80, %82
  br i1 %83, label %84, label %85

84:                                               ; preds = %73
  store i32 0, ptr %17, align 4
  br label %85

85:                                               ; preds = %84, %73
  br label %93

86:                                               ; preds = %70
  store i32 1, ptr %17, align 4
  %87 = load ptr, ptr %9, align 8
  %88 = load ptr, ptr %14, align 8
  %89 = load i32, ptr %88, align 4
  %90 = sext i32 %89 to i64
  %91 = getelementptr inbounds i8, ptr %87, i64 %90
  %92 = load i8, ptr %91, align 1
  store i8 %92, ptr %16, align 1
  br label %93

93:                                               ; preds = %86, %85
  br label %94

94:                                               ; preds = %93, %61
  %95 = load ptr, ptr %14, align 8
  %96 = load i32, ptr %95, align 4
  %97 = add nsw i32 %96, 1
  store i32 %97, ptr %95, align 4
  br label %23, !llvm.loop !42

98:                                               ; preds = %50
  %99 = load i32, ptr %17, align 4
  %100 = icmp ne i32 %99, 0
  br i1 %100, label %101, label %142

101:                                              ; preds = %98
  br label %102

102:                                              ; preds = %124, %101
  %103 = load ptr, ptr %9, align 8
  %104 = load ptr, ptr %14, align 8
  %105 = load i32, ptr %104, align 4
  %106 = sext i32 %105 to i64
  %107 = getelementptr inbounds i8, ptr %103, i64 %106
  %108 = load i8, ptr %107, align 1
  %109 = sext i8 %108 to i32
  %110 = icmp ne i32 %109, 0
  br i1 %110, label %111, label %122

111:                                              ; preds = %102
  %112 = load ptr, ptr %9, align 8
  %113 = load ptr, ptr %14, align 8
  %114 = load i32, ptr %113, align 4
  %115 = sext i32 %114 to i64
  %116 = getelementptr inbounds i8, ptr %112, i64 %115
  %117 = load i8, ptr %116, align 1
  %118 = sext i8 %117 to i32
  %119 = load i8, ptr %16, align 1
  %120 = sext i8 %119 to i32
  %121 = icmp ne i32 %118, %120
  br label %122

122:                                              ; preds = %111, %102
  %123 = phi i1 [ false, %102 ], [ %121, %111 ]
  br i1 %123, label %124, label %128

124:                                              ; preds = %122
  %125 = load ptr, ptr %14, align 8
  %126 = load i32, ptr %125, align 4
  %127 = add nsw i32 %126, 1
  store i32 %127, ptr %125, align 4
  br label %102, !llvm.loop !43

128:                                              ; preds = %122
  %129 = load ptr, ptr %9, align 8
  %130 = load ptr, ptr %14, align 8
  %131 = load i32, ptr %130, align 4
  %132 = sext i32 %131 to i64
  %133 = getelementptr inbounds i8, ptr %129, i64 %132
  %134 = load i8, ptr %133, align 1
  %135 = icmp ne i8 %134, 0
  br i1 %135, label %138, label %136

136:                                              ; preds = %128
  %137 = load ptr, ptr %9, align 8
  call void (ptr, ...) @fatal(ptr noundef @.str.126, ptr noundef %137) #13
  unreachable

138:                                              ; preds = %128
  %139 = load ptr, ptr %14, align 8
  %140 = load i32, ptr %139, align 4
  %141 = add nsw i32 %140, 1
  store i32 %141, ptr %139, align 4
  br label %142

142:                                              ; preds = %138, %98
  %143 = load ptr, ptr %14, align 8
  %144 = load i32, ptr %143, align 4
  %145 = load i32, ptr %18, align 4
  %146 = sub nsw i32 %144, %145
  %147 = icmp sle i32 %146, 0
  br i1 %147, label %148, label %149

148:                                              ; preds = %142
  store ptr null, ptr %8, align 8
  store i32 1, ptr %19, align 4
  br label %202

149:                                              ; preds = %142
  %150 = load ptr, ptr %9, align 8
  %151 = load i32, ptr %18, align 4
  %152 = sext i32 %151 to i64
  %153 = getelementptr inbounds i8, ptr %150, i64 %152
  %154 = load ptr, ptr %14, align 8
  %155 = load i32, ptr %154, align 4
  %156 = load i32, ptr %18, align 4
  %157 = sub nsw i32 %155, %156
  %158 = sext i32 %157 to i64
  %159 = call ptr @xstrndup(ptr noundef %153, i64 noundef %158)
  %160 = load ptr, ptr %11, align 8
  store ptr %159, ptr %160, align 8
  %161 = load ptr, ptr %11, align 8
  %162 = load ptr, ptr %161, align 8
  %163 = call i32 @parse_option_end(ptr noundef %162)
  %164 = load ptr, ptr %13, align 8
  store i32 %163, ptr %164, align 4
  %165 = load ptr, ptr %13, align 8
  %166 = load i32, ptr %165, align 4
  %167 = sub nsw i32 %166, 1
  %168 = load ptr, ptr %12, align 8
  store i32 %167, ptr %168, align 4
  %169 = load ptr, ptr %11, align 8
  %170 = load ptr, ptr %169, align 8
  %171 = load ptr, ptr %13, align 8
  %172 = load i32, ptr %171, align 4
  %173 = sext i32 %172 to i64
  %174 = getelementptr inbounds i8, ptr %170, i64 %173
  %175 = load i8, ptr %174, align 1
  %176 = sext i8 %175 to i32
  %177 = icmp eq i32 %176, 61
  br i1 %177, label %178, label %192

178:                                              ; preds = %149
  %179 = load ptr, ptr %11, align 8
  %180 = load ptr, ptr %179, align 8
  %181 = load ptr, ptr %13, align 8
  %182 = load i32, ptr %181, align 4
  %183 = sub nsw i32 %182, 1
  %184 = sext i32 %183 to i64
  %185 = getelementptr inbounds i8, ptr %180, i64 %184
  %186 = load i8, ptr %185, align 1
  %187 = sext i8 %186 to i32
  %188 = load ptr, ptr %15, align 8
  store i32 %187, ptr %188, align 4
  %189 = load ptr, ptr %13, align 8
  %190 = load i32, ptr %189, align 4
  %191 = add nsw i32 %190, 1
  store i32 %191, ptr %189, align 4
  br label %192

192:                                              ; preds = %178, %149
  %193 = load ptr, ptr %11, align 8
  %194 = load ptr, ptr %193, align 8
  %195 = load ptr, ptr %13, align 8
  %196 = load i32, ptr %195, align 4
  %197 = sext i32 %196 to i64
  %198 = getelementptr inbounds i8, ptr %194, i64 %197
  %199 = load i8, ptr %10, align 1, !range !18, !noundef !19
  %200 = trunc i8 %199 to i1
  %201 = call ptr @strip_quotes(ptr noundef %198, ptr noundef null, i1 noundef zeroext %200)
  store ptr %201, ptr %8, align 8
  store i32 1, ptr %19, align 4
  br label %202

202:                                              ; preds = %192, %148
  call void @llvm.lifetime.end.p0(i64 4, ptr %18) #9
  call void @llvm.lifetime.end.p0(i64 4, ptr %17) #9
  call void @llvm.lifetime.end.p0(i64 1, ptr %16) #9
  %203 = load ptr, ptr %8, align 8
  ret ptr %203
}