; Function Attrs: nounwind uwtable
define internal fastcc ptr @_parse_option(ptr noundef nonnull %0, i1 noundef zeroext %1, ptr noundef nonnull captures(none) %2, ptr noundef nonnull writeonly captures(none) %3, ptr noundef nonnull captures(none) %4, ptr noundef nonnull captures(none) %5, ptr noundef nonnull writeonly captures(none) %6) unnamed_addr #0 {
  %8 = load i32, ptr %5, align 4
  %9 = sext i32 %8 to i64
  br label %10

10:                                               ; preds = %16, %7
  %.promoted64 = phi i32 [ %17, %16 ], [ %8, %7 ]
  %indvars.iv = phi i64 [ %indvars.iv.next, %16 ], [ %9, %7 ]
  %.052 = phi i8 [ %.153, %16 ], [ 0, %7 ]
  %.051 = phi i32 [ %.1, %16 ], [ 0, %7 ]
  %11 = getelementptr inbounds i8, ptr %0, i64 %indvars.iv
  %12 = load i8, ptr %11, align 1
  switch i8 %12, label %16 [
    i8 0, label %.critedge
    i8 58, label %.critedge
    i8 10, label %.critedge
    i8 34, label %13
    i8 39, label %13
  ]

13:                                               ; preds = %10, %10
  %.not63 = icmp eq i32 %.051, 0
  br i1 %.not63, label %16, label %14

14:                                               ; preds = %13
  %15 = icmp ne i8 %12, %.052
  %spec.select = zext i1 %15 to i32
  br label %16

16:                                               ; preds = %13, %14, %10
  %.153 = phi i8 [ %.052, %10 ], [ %.052, %14 ], [ %12, %13 ]
  %.1 = phi i32 [ %.051, %10 ], [ %spec.select, %14 ], [ 1, %13 ]
  %indvars.iv.next = add nsw i64 %indvars.iv, 1
  %17 = trunc nsw i64 %indvars.iv.next to i32
  store i32 %17, ptr %5, align 4
  br label %10, !llvm.loop !42

.critedge:                                        ; preds = %10, %10, %10
  %.not59 = icmp eq i32 %.051, 0
  br i1 %.not59, label %27, label %.preheader

.preheader:                                       ; preds = %.critedge
  %18 = sext i32 %.promoted64 to i64
  %19 = getelementptr inbounds i8, ptr %0, i64 %18
  %20 = load i8, ptr %19, align 1
  %.not6065 = icmp eq i8 %20, 0
  %.not6166 = icmp eq i8 %20, %.052
  %or.cond67 = select i1 %.not6065, i1 true, i1 %.not6166
  br i1 %or.cond67, label %.critedge2, label %.lr.ph

.lr.ph:                                           ; preds = %.preheader, %.lr.ph
  %indvars.iv71 = phi i64 [ %indvars.iv.next72, %.lr.ph ], [ %18, %.preheader ]
  %indvars.iv.next72 = add nsw i64 %indvars.iv71, 1
  %21 = trunc nsw i64 %indvars.iv.next72 to i32
  store i32 %21, ptr %5, align 4
  %22 = getelementptr inbounds i8, ptr %0, i64 %indvars.iv.next72
  %23 = load i8, ptr %22, align 1
  %.not60 = icmp eq i8 %23, 0
  %.not61 = icmp eq i8 %23, %.052
  %or.cond = select i1 %.not60, i1 true, i1 %.not61
  br i1 %or.cond, label %.critedge2, label %.lr.ph, !llvm.loop !43

.critedge2:                                       ; preds = %.lr.ph, %.preheader
  %.lcssa = phi i32 [ %.promoted64, %.preheader ], [ %21, %.lr.ph ]
  %.not60.lcssa = phi i1 [ %.not6065, %.preheader ], [ %.not60, %.lr.ph ]
  br i1 %.not60.lcssa, label %24, label %25

24:                                               ; preds = %.critedge2
  tail call void (ptr, ...) @fatal(ptr noundef nonnull @.str.126, ptr noundef nonnull %0) #18
  unreachable

25:                                               ; preds = %.critedge2
  %26 = add nsw i32 %.lcssa, 1
  store i32 %26, ptr %5, align 4
  br label %27

27:                                               ; preds = %25, %.critedge
  %28 = phi i32 [ %26, %25 ], [ %.promoted64, %.critedge ]
  %29 = sub nsw i32 %28, %8
  %30 = icmp slt i32 %29, 1
  br i1 %30, label %53, label %31

31:                                               ; preds = %27
  %32 = getelementptr inbounds i8, ptr %0, i64 %9
  %33 = zext nneg i32 %29 to i64
  %34 = tail call ptr @xstrndup(ptr noundef nonnull %32, i64 noundef %33) #12
  store ptr %34, ptr %2, align 8
  %35 = tail call i32 @parse_option_end(ptr noundef %34) #12
  store i32 %35, ptr %4, align 4
  %36 = add nsw i32 %35, -1
  store i32 %36, ptr %3, align 4
  %37 = load ptr, ptr %2, align 8
  %38 = load i32, ptr %4, align 4
  %39 = sext i32 %38 to i64
  %40 = getelementptr inbounds i8, ptr %37, i64 %39
  %41 = load i8, ptr %40, align 1
  %42 = icmp eq i8 %41, 61
  br i1 %42, label %43, label %49

43:                                               ; preds = %31
  %44 = getelementptr i8, ptr %40, i64 -1
  %45 = load i8, ptr %44, align 1
  %46 = sext i8 %45 to i32
  store i32 %46, ptr %6, align 4
  %47 = load i32, ptr %4, align 4
  %48 = add nsw i32 %47, 1
  store i32 %48, ptr %4, align 4
  %.pre = load ptr, ptr %2, align 8
  %.pre75 = sext i32 %48 to i64
  br label %49

49:                                               ; preds = %43, %31
  %.pre-phi = phi i64 [ %.pre75, %43 ], [ %39, %31 ]
  %50 = phi ptr [ %.pre, %43 ], [ %37, %31 ]
  %51 = getelementptr inbounds i8, ptr %50, i64 %.pre-phi
  %52 = tail call ptr @strip_quotes(ptr noundef %51, ptr noundef null, i1 noundef zeroext %1) #12
  br label %53

53:                                               ; preds = %27, %49
  %.0 = phi ptr [ %52, %49 ], [ null, %27 ]
  ret ptr %.0
}